target datalayout = "e-m:e-p270:32:32-p271:32:32-p272:64:64-i64:64-i128:128-f80:128-n8:16:32:64-S128"
target triple = "x86_64-pc-linux-gnu"

%"class.zmq::msg_t" = type { %union.anon }
%union.anon = type { %struct.anon }
%struct.anon = type { ptr, [34 x i8], i8, i8, i32, %"union.zmq::msg_t::group_t" }
%"union.zmq::msg_t::group_t" = type { %struct.anon.1 }
%struct.anon.1 = type { i8, ptr }
%struct.anon.3 = type { ptr, ptr, [26 x i8], i8, i8, i32, %"union.zmq::msg_t::group_t" }
%"struct.zmq::msg_t::content_t" = type { ptr, i64, ptr, ptr, %"class.zmq::atomic_counter_t" }
%"class.zmq::atomic_counter_t" = type { %"struct.std::atomic", [4 x i8] }
%"struct.std::atomic" = type { %"struct.std::__atomic_base" }
%"struct.std::__atomic_base" = type { i32 }
%struct.anon.4 = type { ptr, ptr, [26 x i8], i8, i8, i32, %"union.zmq::msg_t::group_t" }

@stderr = external global ptr, align 8
@.str = private unnamed_addr constant [30 x i8] c"Assertion failed: %s (%s:%d)\0A\00", align 1
@.str.2 = private unnamed_addr constant [103 x i8] c"generated/home/dtcxzyw/WorkSpace/Projects/compilers/llvm-opt-benchmark/bench/libzmq/libzmq/src/msg.cpp\00", align 1
@.str.9 = private unnamed_addr constant [11 x i8] c"refs_ >= 0\00", align 1
@.str.10 = private unnamed_addr constant [25 x i8] c"_u.base.metadata == NULL\00", align 1

; Function Attrs: alwaysinline mustprogress nounwind uwtable
define linkonce_odr noundef i32 @_ZNSt13__atomic_baseIjE9fetch_subEjSt12memory_order(ptr noundef nonnull align 4 dereferenceable(4) %0, i32 noundef %1, i32 noundef %2) #12 comdat align 2 {
  %4 = alloca ptr, align 8
  %5 = alloca i32, align 4
  %6 = alloca i32, align 4
  %7 = alloca i32, align 4
  %8 = alloca i32, align 4
  store ptr %0, ptr %4, align 8, !tbaa !35
  store i32 %1, ptr %5, align 4, !tbaa !14
  store i32 %2, ptr %6, align 4, !tbaa !38
  %9 = load ptr, ptr %4, align 8
  %10 = getelementptr inbounds nuw %"struct.std::__atomic_base", ptr %9, i32 0, i32 0
  %11 = load i32, ptr %6, align 4, !tbaa !38
  %12 = load i32, ptr %5, align 4, !tbaa !14
  store i32 %12, ptr %7, align 4, !tbaa !14
  switch i32 %11, label %13 [
    i32 1, label %16
    i32 2, label %16
    i32 3, label %19
    i32 4, label %22
    i32 5, label %25
  ]

13:                                               ; preds = %3
  %14 = load i32, ptr %7, align 4
  %15 = atomicrmw sub ptr %10, i32 %14 monotonic, align 4
  store i32 %15, ptr %8, align 4
  br label %28

16:                                               ; preds = %3, %3
  %17 = load i32, ptr %7, align 4
  %18 = atomicrmw sub ptr %10, i32 %17 acquire, align 4
  store i32 %18, ptr %8, align 4
  br label %28

19:                                               ; preds = %3
  %20 = load i32, ptr %7, align 4
  %21 = atomicrmw sub ptr %10, i32 %20 release, align 4
  store i32 %21, ptr %8, align 4
  br label %28

22:                                               ; preds = %3
  %23 = load i32, ptr %7, align 4
  %24 = atomicrmw sub ptr %10, i32 %23 acq_rel, align 4
  store i32 %24, ptr %8, align 4
  br label %28

25:                                               ; preds = %3
  %26 = load i32, ptr %7, align 4
  %27 = atomicrmw sub ptr %10, i32 %26 seq_cst, align 4
  store i32 %27, ptr %8, align 4
  br label %28

28:                                               ; preds = %25, %22, %19, %16, %13
  %29 = load i32, ptr %8, align 4, !tbaa !14
  ret i32 %29
}

; Function Attrs: mustprogress nounwind uwtable
define noundef zeroext i1 @_ZNK3zmq5msg_t8is_zcmsgEv(ptr noundef nonnull align 8 dereferenceable(64) %0) #0 align 2 {
  %2 = alloca ptr, align 8
  store ptr %0, ptr %2, align 8, !tbaa !3
  %3 = load ptr, ptr %2, align 8
  %4 = getelementptr inbounds nuw %"class.zmq::msg_t", ptr %3, i32 0, i32 0
  %5 = getelementptr inbounds nuw %struct.anon, ptr %4, i32 0, i32 2
  %6 = load i8, ptr %5, align 2, !tbaa !8
  %7 = zext i8 %6 to i32
  %8 = icmp eq i32 %7, 105
  ret i1 %8
}

; Function Attrs: mustprogress nounwind uwtable
define linkonce_odr noundef zeroext i1 @_ZN3zmq16atomic_counter_t3subEj(ptr noundef nonnull align 8 dereferenceable(4) %0, i32 noundef %1) #0 comdat align 2 {
  %3 = alloca ptr, align 8
  %4 = alloca i32, align 4
  %5 = alloca i32, align 4
  store ptr %0, ptr %3, align 8, !tbaa !26
  store i32 %1, ptr %4, align 4, !tbaa !14
  %6 = load ptr, ptr %3, align 8
  call void @llvm.lifetime.start.p0(i64 4, ptr %5) #14
  %7 = getelementptr inbounds nuw %"class.zmq::atomic_counter_t", ptr %6, i32 0, i32 0
  %8 = load i32, ptr %4, align 4, !tbaa !14
  %9 = call noundef i32 @_ZNSt13__atomic_baseIjE9fetch_subEjSt12memory_order(ptr noundef nonnull align 4 dereferenceable(4) %7, i32 noundef %8, i32 noundef 4) #14
  store i32 %9, ptr %5, align 4, !tbaa !14
  %10 = load i32, ptr %5, align 4, !tbaa !14
  %11 = load i32, ptr %4, align 4, !tbaa !14
  %12 = sub i32 %10, %11
  %13 = icmp ne i32 %12, 0
  call void @llvm.lifetime.end.p0(i64 4, ptr %5) #14
  ret i1 %13
}

; Function Attrs: mustprogress uwtable
define noundef zeroext i1 @_ZN3zmq5msg_t7rm_refsEi(ptr noundef nonnull align 8 dereferenceable(64) %0, i32 noundef %1) #1 align 2 {
  %3 = alloca i1, align 1
  %4 = alloca ptr, align 8
  %5 = alloca i32, align 4
  store ptr %0, ptr %4, align 8, !tbaa !3
  store i32 %1, ptr %5, align 4, !tbaa !14
  %6 = load ptr, ptr %4, align 8
  br label %7

7:                                                ; preds = %2
  %8 = load i32, ptr %5, align 4, !tbaa !14
  %9 = icmp sge i32 %8, 0
  %10 = xor i1 %9, true
  %11 = zext i1 %10 to i64
  %12 = call i64 @llvm.expect.i64(i64 %11, i64 0)
  %13 = icmp ne i64 %12, 0
  br i1 %13, label %14, label %19

14:                                               ; preds = %7
  %15 = load ptr, ptr @stderr, align 8, !tbaa !24
  %16 = call i32 (ptr, ptr, ...) @fprintf(ptr noundef %15, ptr noundef @.str, ptr noundef @.str.9, ptr noundef @.str.2, i32 noundef 586) #14
  %17 = load ptr, ptr @stderr, align 8, !tbaa !24
  %18 = call i32 @fflush(ptr noundef %17)
  call void @_ZN3zmq9zmq_abortEPKc(ptr noundef @.str.9)
  br label %19

19:                                               ; preds = %14, %7
  br label %20

20:                                               ; preds = %19
  br label %21

21:                                               ; preds = %20
  %22 = getelementptr inbounds nuw %"class.zmq::msg_t", ptr %6, i32 0, i32 0
  %23 = getelementptr inbounds nuw %struct.anon, ptr %22, i32 0, i32 0
  %24 = load ptr, ptr %23, align 8, !tbaa !8
  %25 = icmp eq ptr %24, null
  %26 = xor i1 %25, true
  %27 = zext i1 %26 to i64
  %28 = call i64 @llvm.expect.i64(i64 %27, i64 0)
  %29 = icmp ne i64 %28, 0
  br i1 %29, label %30, label %35

30:                                               ; preds = %21
  %31 = load ptr, ptr @stderr, align 8, !tbaa !24
  %32 = call i32 (ptr, ptr, ...) @fprintf(ptr noundef %31, ptr noundef @.str, ptr noundef @.str.10, ptr noundef @.str.2, i32 noundef 589) #14
  %33 = load ptr, ptr @stderr, align 8, !tbaa !24
  %34 = call i32 @fflush(ptr noundef %33)
  call void @_ZN3zmq9zmq_abortEPKc(ptr noundef @.str.10)
  br label %35

35:                                               ; preds = %30, %21
  br label %36

36:                                               ; preds = %35
  %37 = load i32, ptr %5, align 4, !tbaa !14
  %38 = icmp ne i32 %37, 0
  br i1 %38, label %40, label %39

39:                                               ; preds = %36
  store i1 true, ptr %3, align 1
  br label %135

40:                                               ; preds = %36
  %41 = getelementptr inbounds nuw %"class.zmq::msg_t", ptr %6, i32 0, i32 0
  %42 = getelementptr inbounds nuw %struct.anon, ptr %41, i32 0, i32 2
  %43 = load i8, ptr %42, align 2, !tbaa !8
  %44 = zext i8 %43 to i32
  %45 = icmp ne i32 %44, 105
  br i1 %45, label %46, label %52

46:                                               ; preds = %40
  %47 = getelementptr inbounds nuw %"class.zmq::msg_t", ptr %6, i32 0, i32 0
  %48 = getelementptr inbounds nuw %struct.anon, ptr %47, i32 0, i32 2
  %49 = load i8, ptr %48, align 2, !tbaa !8
  %50 = zext i8 %49 to i32
  %51 = icmp ne i32 %50, 102
  br i1 %51, label %59, label %52

52:                                               ; preds = %46, %40
  %53 = getelementptr inbounds nuw %"class.zmq::msg_t", ptr %6, i32 0, i32 0
  %54 = getelementptr inbounds nuw %struct.anon, ptr %53, i32 0, i32 3
  %55 = load i8, ptr %54, align 1, !tbaa !8
  %56 = zext i8 %55 to i32
  %57 = and i32 %56, 128
  %58 = icmp ne i32 %57, 0
  br i1 %58, label %61, label %59

59:                                               ; preds = %52, %46
  %60 = call noundef i32 @_ZN3zmq5msg_t5closeEv(ptr noundef nonnull align 8 dereferenceable(64) %6)
  store i1 false, ptr %3, align 1
  br label %135

61:                                               ; preds = %52
  %62 = getelementptr inbounds nuw %"class.zmq::msg_t", ptr %6, i32 0, i32 0
  %63 = getelementptr inbounds nuw %struct.anon, ptr %62, i32 0, i32 2
  %64 = load i8, ptr %63, align 2, !tbaa !8
  %65 = zext i8 %64 to i32
  %66 = icmp eq i32 %65, 102
  br i1 %66, label %67, label %101

67:                                               ; preds = %61
  %68 = getelementptr inbounds nuw %"class.zmq::msg_t", ptr %6, i32 0, i32 0
  %69 = getelementptr inbounds nuw %struct.anon.3, ptr %68, i32 0, i32 1
  %70 = load ptr, ptr %69, align 8, !tbaa !8
  %71 = getelementptr inbounds nuw %"struct.zmq::msg_t::content_t", ptr %70, i32 0, i32 4
  %72 = load i32, ptr %5, align 4, !tbaa !14
  %73 = call noundef zeroext i1 @_ZN3zmq16atomic_counter_t3subEj(ptr noundef nonnull align 8 dereferenceable(4) %71, i32 noundef %72) #14
  br i1 %73, label %101, label %74

74:                                               ; preds = %67
  %75 = getelementptr inbounds nuw %"class.zmq::msg_t", ptr %6, i32 0, i32 0
  %76 = getelementptr inbounds nuw %struct.anon.3, ptr %75, i32 0, i32 1
  %77 = load ptr, ptr %76, align 8, !tbaa !8
  %78 = getelementptr inbounds nuw %"struct.zmq::msg_t::content_t", ptr %77, i32 0, i32 2
  %79 = load ptr, ptr %78, align 8, !tbaa !22
  %80 = icmp ne ptr %79, null
  br i1 %80, label %81, label %97

81:                                               ; preds = %74
  %82 = getelementptr inbounds nuw %"class.zmq::msg_t", ptr %6, i32 0, i32 0
  %83 = getelementptr inbounds nuw %struct.anon.3, ptr %82, i32 0, i32 1
  %84 = load ptr, ptr %83, align 8, !tbaa !8
  %85 = getelementptr inbounds nuw %"struct.zmq::msg_t::content_t", ptr %84, i32 0, i32 2
  %86 = load ptr, ptr %85, align 8, !tbaa !22
  %87 = getelementptr inbounds nuw %"class.zmq::msg_t", ptr %6, i32 0, i32 0
  %88 = getelementptr inbounds nuw %struct.anon.3, ptr %87, i32 0, i32 1
  %89 = load ptr, ptr %88, align 8, !tbaa !8
  %90 = getelementptr inbounds nuw %"struct.zmq::msg_t::content_t", ptr %89, i32 0, i32 0
  %91 = load ptr, ptr %90, align 8, !tbaa !16
  %92 = getelementptr inbounds nuw %"class.zmq::msg_t", ptr %6, i32 0, i32 0
  %93 = getelementptr inbounds nuw %struct.anon.3, ptr %92, i32 0, i32 1
  %94 = load ptr, ptr %93, align 8, !tbaa !8
  %95 = getelementptr inbounds nuw %"struct.zmq::msg_t::content_t", ptr %94, i32 0, i32 3
  %96 = load ptr, ptr %95, align 8, !tbaa !23
  call void %86(ptr noundef %91, ptr noundef %96)
  br label %97

97:                                               ; preds = %81, %74
  %98 = getelementptr inbounds nuw %"class.zmq::msg_t", ptr %6, i32 0, i32 0
  %99 = getelementptr inbounds nuw %struct.anon.3, ptr %98, i32 0, i32 1
  %100 = load ptr, ptr %99, align 8, !tbaa !8
  call void @free(ptr noundef %100) #14
  store i1 false, ptr %3, align 1
  br label %135

101:                                              ; preds = %67, %61
  %102 = call noundef zeroext i1 @_ZNK3zmq5msg_t8is_zcmsgEv(ptr noundef nonnull align 8 dereferenceable(64) %6)
  br i1 %102, label %103, label %134

103:                                              ; preds = %101
  %104 = getelementptr inbounds nuw %"class.zmq::msg_t", ptr %6, i32 0, i32 0
  %105 = getelementptr inbounds nuw %struct.anon.4, ptr %104, i32 0, i32 1
  %106 = load ptr, ptr %105, align 8, !tbaa !8
  %107 = getelementptr inbounds nuw %"struct.zmq::msg_t::content_t", ptr %106, i32 0, i32 4
  %108 = load i32, ptr %5, align 4, !tbaa !14
  %109 = call noundef zeroext i1 @_ZN3zmq16atomic_counter_t3subEj(ptr noundef nonnull align 8 dereferenceable(4) %107, i32 noundef %108) #14
  br i1 %109, label %134, label %110

110:                                              ; preds = %103
  %111 = getelementptr inbounds nuw %"class.zmq::msg_t", ptr %6, i32 0, i32 0
  %112 = getelementptr inbounds nuw %struct.anon.4, ptr %111, i32 0, i32 1
  %113 = load ptr, ptr %112, align 8, !tbaa !8
  %114 = getelementptr inbounds nuw %"struct.zmq::msg_t::content_t", ptr %113, i32 0, i32 2
  %115 = load ptr, ptr %114, align 8, !tbaa !22
  %116 = icmp ne ptr %115, null
  br i1 %116, label %117, label %133

117:                                              ; preds = %110
  %118 = getelementptr inbounds nuw %"class.zmq::msg_t", ptr %6, i32 0, i32 0
  %119 = getelementptr inbounds nuw %struct.anon.4, ptr %118, i32 0, i32 1
  %120 = load ptr, ptr %119, align 8, !tbaa !8
  %121 = getelementptr inbounds nuw %"struct.zmq::msg_t::content_t", ptr %120, i32 0, i32 2
  %122 = load ptr, ptr %121, align 8, !tbaa !22
  %123 = getelementptr inbounds nuw %"class.zmq::msg_t", ptr %6, i32 0, i32 0
  %124 = getelementptr inbounds nuw %struct.anon.4, ptr %123, i32 0, i32 1
  %125 = load ptr, ptr %124, align 8, !tbaa !8
  %126 = getelementptr inbounds nuw %"struct.zmq::msg_t::content_t", ptr %125, i32 0, i32 0
  %127 = load ptr, ptr %126, align 8, !tbaa !16
  %128 = getelementptr inbounds nuw %"class.zmq::msg_t", ptr %6, i32 0, i32 0
  %129 = getelementptr inbounds nuw %struct.anon.4, ptr %128, i32 0, i32 1
  %130 = load ptr, ptr %129, align 8, !tbaa !8
  %131 = getelementptr inbounds nuw %"struct.zmq::msg_t::content_t", ptr %130, i32 0, i32 3
  %132 = load ptr, ptr %131, align 8, !tbaa !23
  call void %122(ptr noundef %127, ptr noundef %132)
  br label %133

133:                                              ; preds = %117, %110
  store i1 false, ptr %3, align 1
  br label %135

134:                                              ; preds = %103, %101
  store i1 true, ptr %3, align 1
  br label %135

135:                                              ; preds = %134, %133, %97, %59, %39
  %136 = load i1, ptr %3, align 1
  ret i1 %136
}