; Function Attrs: mustprogress uwtable
define noundef zeroext i1 @_ZN3zmq5msg_t7rm_refsEi(ptr noundef nonnull align 8 captures(none) dereferenceable(64) %0, i32 noundef %1) local_unnamed_addr #1 align 2 {
  %3 = icmp slt i32 %1, 0
  br i1 %3, label %4, label %9, !prof !6

4:                                                ; preds = %2
  %5 = load ptr, ptr @stderr, align 8, !tbaa !7
  %6 = tail call i32 (ptr, ptr, ...) @fprintf(ptr noundef %5, ptr noundef nonnull @.str, ptr noundef nonnull @.str.9, ptr noundef nonnull @.str.2, i32 noundef 586) #20
  %7 = load ptr, ptr @stderr, align 8, !tbaa !7
  %8 = tail call i32 @fflush(ptr noundef %7)
  tail call void @_ZN3zmq9zmq_abortEPKc(ptr noundef nonnull @.str.9)
  br label %9

9:                                                ; preds = %4, %2
  %10 = load ptr, ptr %0, align 8, !tbaa !3
  %.not = icmp eq ptr %10, null
  br i1 %.not, label %16, label %11, !prof !23

11:                                               ; preds = %9
  %12 = load ptr, ptr @stderr, align 8, !tbaa !7
  %13 = tail call i32 (ptr, ptr, ...) @fprintf(ptr noundef %12, ptr noundef nonnull @.str, ptr noundef nonnull @.str.10, ptr noundef nonnull @.str.2, i32 noundef 589) #20
  %14 = load ptr, ptr @stderr, align 8, !tbaa !7
  %15 = tail call i32 @fflush(ptr noundef %14)
  tail call void @_ZN3zmq9zmq_abortEPKc(ptr noundef nonnull @.str.10)
  br label %16

16:                                               ; preds = %9, %11
  %.not9 = icmp eq i32 %1, 0
  br i1 %.not9, label %58, label %17

17:                                               ; preds = %16
  %18 = getelementptr inbounds nuw i8, ptr %0, i64 42
  %19 = load i8, ptr %18, align 2, !tbaa !3
  switch i8 %19, label %23 [
    i8 105, label %20
    i8 102, label %20
  ]

20:                                               ; preds = %17, %17
  %21 = getelementptr inbounds nuw i8, ptr %0, i64 43
  %22 = load i8, ptr %21, align 1, !tbaa !3
  %.not12 = icmp sgt i8 %22, -1
  br i1 %.not12, label %23, label %25

23:                                               ; preds = %17, %20
  %24 = tail call noundef i32 @_ZN3zmq5msg_t5closeEv(ptr noundef nonnull align 8 dereferenceable(64) %0)
  br label %58

25:                                               ; preds = %20
  %26 = icmp eq i8 %19, 102
  br i1 %26, label %27, label %42

27:                                               ; preds = %25
  %28 = getelementptr inbounds nuw i8, ptr %0, i64 8
  %29 = load ptr, ptr %28, align 8, !tbaa !3
  %30 = getelementptr inbounds nuw i8, ptr %29, i64 32
  %31 = atomicrmw sub ptr %30, i32 %1 acq_rel, align 4
  %.not15 = icmp eq i32 %31, %1
  br i1 %.not15, label %32, label %._crit_edge

._crit_edge:                                      ; preds = %27
  %.pre = load i8, ptr %18, align 2, !tbaa !3
  br label %42

32:                                               ; preds = %27
  %33 = load ptr, ptr %28, align 8, !tbaa !3
  %34 = getelementptr inbounds nuw i8, ptr %33, i64 16
  %35 = load ptr, ptr %34, align 8, !tbaa !18
  %.not13 = icmp eq ptr %35, null
  br i1 %.not13, label %40, label %36

36:                                               ; preds = %32
  %37 = load ptr, ptr %33, align 8, !tbaa !10
  %38 = getelementptr inbounds nuw i8, ptr %33, i64 24
  %39 = load ptr, ptr %38, align 8, !tbaa !19
  tail call void %35(ptr noundef %37, ptr noundef %39)
  %.pre17 = load ptr, ptr %28, align 8, !tbaa !3
  br label %40

40:                                               ; preds = %36, %32
  %41 = phi ptr [ %.pre17, %36 ], [ %33, %32 ]
  tail call void @free(ptr noundef %41) #23
  br label %58

42:                                               ; preds = %._crit_edge, %25
  %43 = phi i8 [ %.pre, %._crit_edge ], [ %19, %25 ]
  %44 = icmp eq i8 %43, 105
  br i1 %44, label %45, label %58

45:                                               ; preds = %42
  %46 = getelementptr inbounds nuw i8, ptr %0, i64 8
  %47 = load ptr, ptr %46, align 8, !tbaa !3
  %48 = getelementptr inbounds nuw i8, ptr %47, i64 32
  %49 = atomicrmw sub ptr %48, i32 %1 acq_rel, align 4
  %.not16 = icmp eq i32 %49, %1
  br i1 %.not16, label %50, label %58

50:                                               ; preds = %45
  %51 = load ptr, ptr %46, align 8, !tbaa !3
  %52 = getelementptr inbounds nuw i8, ptr %51, i64 16
  %53 = load ptr, ptr %52, align 8, !tbaa !18
  %.not14 = icmp eq ptr %53, null
  br i1 %.not14, label %58, label %54

54:                                               ; preds = %50
  %55 = load ptr, ptr %51, align 8, !tbaa !10
  %56 = getelementptr inbounds nuw i8, ptr %51, i64 24
  %57 = load ptr, ptr %56, align 8, !tbaa !19
  tail call void %53(ptr noundef %55, ptr noundef %57)
  br label %58

58:                                               ; preds = %42, %45, %50, %54, %16, %40, %23
  %.0 = phi i1 [ false, %23 ], [ false, %40 ], [ true, %16 ], [ false, %54 ], [ false, %50 ], [ true, %45 ], [ true, %42 ]
  ret i1 %.0
}